; Function Attrs: nounwind uwtable
define hidden i32 @ma_vfs_close(ptr noundef %0, ptr noundef %1) local_unnamed_addr #7 {
  %3 = icmp eq ptr %0, null
  %4 = icmp eq ptr %1, null
  %or.cond = or i1 %3, %4
  br i1 %or.cond, label %11, label %5

5:                                                ; preds = %2
  %6 = getelementptr inbounds nuw i8, ptr %0, i64 16
  %7 = load ptr, ptr %6, align 8
  %8 = icmp eq ptr %7, null
  br i1 %8, label %11, label %9

9:                                                ; preds = %5
  %10 = tail call i32 %7(ptr noundef nonnull %0, ptr noundef nonnull %1) #72
  br label %11

11:                                               ; preds = %5, %2, %9
  %.0 = phi i32 [ %10, %9 ], [ -2, %2 ], [ -29, %5 ]
  ret i32 %.0
}